target datalayout = "e-m:e-p270:32:32-p271:32:32-p272:64:64-i64:64-i128:128-f80:128-n8:16:32:64-S128"
target triple = "x86_64-pc-linux-gnu"

@save_format_errnumber = internal global i32 0, align 4
@save_format_domain = internal global ptr null, align 8
@.str.10 = private unnamed_addr constant [68 x i8] c"0123456789_abcdefghijklmnopqrstuvwxyzABCDEFGHIJKLMNOPQRSTUVWXYZ, \0A\09\00", align 1
@.str.11 = private unnamed_addr constant [19 x i8] c"Invalid character.\00", align 1
@GUC_check_errdetail_string = external global ptr, align 8

; Function Attrs: nounwind uwtable
define dso_local void @pre_format_elog_string(i32 noundef %0, ptr noundef %1) #0 {
  %3 = alloca i32, align 4
  %4 = alloca ptr, align 8
  store i32 %0, ptr %3, align 4
  store ptr %1, ptr %4, align 8
  %5 = load i32, ptr %3, align 4
  store i32 %5, ptr @save_format_errnumber, align 4
  %6 = load ptr, ptr %4, align 8
  store ptr %6, ptr @save_format_domain, align 8
  ret void
}

; Function Attrs: nounwind uwtable
define dso_local zeroext i1 @check_backtrace_functions(ptr noundef %0, ptr noundef %1, i32 noundef %2) #0 {
  %4 = alloca i1, align 1
  %5 = alloca ptr, align 8
  %6 = alloca ptr, align 8
  %7 = alloca i32, align 4
  %8 = alloca i32, align 4
  %9 = alloca ptr, align 8
  %10 = alloca i32, align 4
  %11 = alloca i32, align 4
  %12 = alloca i32, align 4
  %13 = alloca i32, align 4
  store ptr %0, ptr %5, align 8
  store ptr %1, ptr %6, align 8
  store i32 %2, ptr %7, align 4
  call void @llvm.lifetime.start.p0(i64 4, ptr %8) #16
  %14 = load ptr, ptr %5, align 8
  %15 = load ptr, ptr %14, align 8
  %16 = call i64 @strlen(ptr noundef %15) #21
  %17 = trunc i64 %16 to i32
  store i32 %17, ptr %8, align 4
  call void @llvm.lifetime.start.p0(i64 8, ptr %9) #16
  call void @llvm.lifetime.start.p0(i64 4, ptr %10) #16
  call void @llvm.lifetime.start.p0(i64 4, ptr %11) #16
  call void @llvm.lifetime.start.p0(i64 4, ptr %12) #16
  %18 = load ptr, ptr %5, align 8
  %19 = load ptr, ptr %18, align 8
  %20 = call i64 @strspn(ptr noundef %19, ptr noundef @.str.10) #21
  %21 = trunc i64 %20 to i32
  store i32 %21, ptr %10, align 4
  %22 = load i32, ptr %10, align 4
  %23 = load i32, ptr %8, align 4
  %24 = icmp ne i32 %22, %23
  br i1 %24, label %25, label %29

25:                                               ; preds = %3
  %26 = call ptr @__errno_location() #19
  %27 = load i32, ptr %26, align 4
  call void @pre_format_elog_string(i32 noundef %27, ptr noundef null)
  %28 = call ptr (ptr, ...) @format_elog_string(ptr noundef @.str.11)
  store ptr %28, ptr @GUC_check_errdetail_string, align 8
  store i1 false, ptr %4, align 1
  store i32 1, ptr %13, align 4
  br label %120

29:                                               ; preds = %3
  %30 = load ptr, ptr %5, align 8
  %31 = getelementptr inbounds ptr, ptr %30, i64 0
  %32 = load ptr, ptr %31, align 8
  %33 = load i8, ptr %32, align 1
  %34 = sext i8 %33 to i32
  %35 = icmp eq i32 %34, 0
  br i1 %35, label %36, label %38

36:                                               ; preds = %29
  %37 = load ptr, ptr %6, align 8
  store ptr null, ptr %37, align 8
  store i1 true, ptr %4, align 1
  store i32 1, ptr %13, align 4
  br label %120

38:                                               ; preds = %29
  %39 = load i32, ptr %8, align 4
  %40 = add i32 %39, 1
  %41 = add i32 %40, 1
  %42 = sext i32 %41 to i64
  %43 = call ptr @guc_malloc(i32 noundef 21, i64 noundef %42)
  store ptr %43, ptr %9, align 8
  store i32 0, ptr %11, align 4
  store i32 0, ptr %12, align 4
  br label %44

44:                                               ; preds = %105, %38
  %45 = load i32, ptr %11, align 4
  %46 = load i32, ptr %8, align 4
  %47 = icmp slt i32 %45, %46
  br i1 %47, label %48, label %108

48:                                               ; preds = %44
  %49 = load ptr, ptr %5, align 8
  %50 = load ptr, ptr %49, align 8
  %51 = load i32, ptr %11, align 4
  %52 = sext i32 %51 to i64
  %53 = getelementptr inbounds i8, ptr %50, i64 %52
  %54 = load i8, ptr %53, align 1
  %55 = sext i8 %54 to i32
  %56 = icmp eq i32 %55, 44
  br i1 %56, label %57, label %63

57:                                               ; preds = %48
  %58 = load ptr, ptr %9, align 8
  %59 = load i32, ptr %12, align 4
  %60 = add i32 %59, 1
  store i32 %60, ptr %12, align 4
  %61 = sext i32 %59 to i64
  %62 = getelementptr inbounds i8, ptr %58, i64 %61
  store i8 0, ptr %62, align 1
  br label %104

63:                                               ; preds = %48
  %64 = load ptr, ptr %5, align 8
  %65 = load ptr, ptr %64, align 8
  %66 = load i32, ptr %11, align 4
  %67 = sext i32 %66 to i64
  %68 = getelementptr inbounds i8, ptr %65, i64 %67
  %69 = load i8, ptr %68, align 1
  %70 = sext i8 %69 to i32
  %71 = icmp eq i32 %70, 32
  br i1 %71, label %90, label %72

72:                                               ; preds = %63
  %73 = load ptr, ptr %5, align 8
  %74 = load ptr, ptr %73, align 8
  %75 = load i32, ptr %11, align 4
  %76 = sext i32 %75 to i64
  %77 = getelementptr inbounds i8, ptr %74, i64 %76
  %78 = load i8, ptr %77, align 1
  %79 = sext i8 %78 to i32
  %80 = icmp eq i32 %79, 10
  br i1 %80, label %90, label %81

81:                                               ; preds = %72
  %82 = load ptr, ptr %5, align 8
  %83 = load ptr, ptr %82, align 8
  %84 = load i32, ptr %11, align 4
  %85 = sext i32 %84 to i64
  %86 = getelementptr inbounds i8, ptr %83, i64 %85
  %87 = load i8, ptr %86, align 1
  %88 = sext i8 %87 to i32
  %89 = icmp eq i32 %88, 9
  br i1 %89, label %90, label %91

90:                                               ; preds = %81, %72, %63
  br label %103

91:                                               ; preds = %81
  %92 = load ptr, ptr %5, align 8
  %93 = load ptr, ptr %92, align 8
  %94 = load i32, ptr %11, align 4
  %95 = sext i32 %94 to i64
  %96 = getelementptr inbounds i8, ptr %93, i64 %95
  %97 = load i8, ptr %96, align 1
  %98 = load ptr, ptr %9, align 8
  %99 = load i32, ptr %12, align 4
  %100 = add i32 %99, 1
  store i32 %100, ptr %12, align 4
  %101 = sext i32 %99 to i64
  %102 = getelementptr inbounds i8, ptr %98, i64 %101
  store i8 %97, ptr %102, align 1
  br label %103

103:                                              ; preds = %91, %90
  br label %104

104:                                              ; preds = %103, %57
  br label %105

105:                                              ; preds = %104
  %106 = load i32, ptr %11, align 4
  %107 = add i32 %106, 1
  store i32 %107, ptr %11, align 4
  br label %44, !llvm.loop !12

108:                                              ; preds = %44
  %109 = load ptr, ptr %9, align 8
  %110 = load i32, ptr %12, align 4
  %111 = sext i32 %110 to i64
  %112 = getelementptr inbounds i8, ptr %109, i64 %111
  store i8 0, ptr %112, align 1
  %113 = load ptr, ptr %9, align 8
  %114 = load i32, ptr %12, align 4
  %115 = add i32 %114, 1
  %116 = sext i32 %115 to i64
  %117 = getelementptr inbounds i8, ptr %113, i64 %116
  store i8 0, ptr %117, align 1
  %118 = load ptr, ptr %9, align 8
  %119 = load ptr, ptr %6, align 8
  store ptr %118, ptr %119, align 8
  store i1 true, ptr %4, align 1
  store i32 1, ptr %13, align 4
  br label %120

120:                                              ; preds = %108, %36, %25
  call void @llvm.lifetime.end.p0(i64 4, ptr %12) #16
  call void @llvm.lifetime.end.p0(i64 4, ptr %11) #16
  call void @llvm.lifetime.end.p0(i64 4, ptr %10) #16
  call void @llvm.lifetime.end.p0(i64 8, ptr %9) #16
  call void @llvm.lifetime.end.p0(i64 4, ptr %8) #16
  %121 = load i1, ptr %4, align 1
  ret i1 %121
}