; Function Attrs: nounwind uwtable
define dso_local noundef zeroext i1 @check_backtrace_functions(ptr noundef readonly captures(none) %0, ptr noundef writeonly captures(none) %1, i32 noundef %2) local_unnamed_addr #3 {
  %4 = load ptr, ptr %0, align 8
  %5 = tail call i64 @strlen(ptr noundef nonnull dereferenceable(1) %4) #35
  %6 = trunc i64 %5 to i32
  %7 = tail call i64 @strspn(ptr noundef nonnull %4, ptr noundef nonnull @.str.10) #35
  %8 = trunc i64 %7 to i32
  %.not = icmp eq i32 %8, %6
  br i1 %.not, label %13, label %9

9:                                                ; preds = %3
  %10 = tail call ptr @__errno_location() #34
  %11 = load i32, ptr %10, align 4
  store i32 %11, ptr @save_format_errnumber, align 4
  %12 = tail call ptr (ptr, ...) @format_elog_string(ptr noundef nonnull @.str.11)
  store ptr %12, ptr @GUC_check_errdetail_string, align 8
  br label %35

13:                                               ; preds = %3
  %14 = load i8, ptr %4, align 1
  %15 = icmp eq i8 %14, 0
  br i1 %15, label %16, label %17

16:                                               ; preds = %13
  store ptr null, ptr %1, align 8
  br label %35

17:                                               ; preds = %13
  %18 = shl i64 %5, 32
  %sext = add i64 %18, 8589934592
  %19 = ashr exact i64 %sext, 32
  %20 = tail call ptr @guc_malloc(i32 noundef 21, i64 noundef %19) #32
  %21 = icmp sgt i32 %6, 0
  br i1 %21, label %.lr.ph.preheader, label %._crit_edge

.lr.ph.preheader:                                 ; preds = %17
  %wide.trip.count = and i64 %5, 2147483647
  br label %.lr.ph

.lr.ph:                                           ; preds = %.lr.ph.preheader, %29
  %indvars.iv = phi i64 [ 0, %.lr.ph.preheader ], [ %indvars.iv.next, %29 ]
  %.035 = phi i32 [ 0, %.lr.ph.preheader ], [ %.1, %29 ]
  %22 = load ptr, ptr %0, align 8
  %23 = getelementptr inbounds nuw i8, ptr %22, i64 %indvars.iv
  %24 = load i8, ptr %23, align 1
  switch i8 %24, label %25 [
    i8 44, label %.sink.split
    i8 32, label %29
    i8 10, label %29
    i8 9, label %29
  ]

25:                                               ; preds = %.lr.ph
  br label %.sink.split

.sink.split:                                      ; preds = %.lr.ph, %25
  %.sink = phi i8 [ %24, %25 ], [ 0, %.lr.ph ]
  %26 = add i32 %.035, 1
  %27 = sext i32 %.035 to i64
  %28 = getelementptr inbounds i8, ptr %20, i64 %27
  store i8 %.sink, ptr %28, align 1
  br label %29

29:                                               ; preds = %.sink.split, %.lr.ph, %.lr.ph, %.lr.ph
  %.1 = phi i32 [ %.035, %.lr.ph ], [ %.035, %.lr.ph ], [ %.035, %.lr.ph ], [ %26, %.sink.split ]
  %indvars.iv.next = add nuw nsw i64 %indvars.iv, 1
  %exitcond.not = icmp eq i64 %indvars.iv.next, %wide.trip.count
  br i1 %exitcond.not, label %._crit_edge, label %.lr.ph, !llvm.loop !75

._crit_edge:                                      ; preds = %29, %17
  %.0.lcssa = phi i32 [ 0, %17 ], [ %.1, %29 ]
  %30 = sext i32 %.0.lcssa to i64
  %31 = getelementptr inbounds i8, ptr %20, i64 %30
  store i8 0, ptr %31, align 1
  %32 = add i32 %.0.lcssa, 1
  %33 = sext i32 %32 to i64
  %34 = getelementptr inbounds i8, ptr %20, i64 %33
  store i8 0, ptr %34, align 1
  store ptr %20, ptr %1, align 8
  br label %35

35:                                               ; preds = %._crit_edge, %16, %9
  ret i1 %.not
}